target datalayout = "e-m:e-p270:32:32-p271:32:32-p272:64:64-i64:64-i128:128-f80:128-n8:16:32:64-S128"
target triple = "x86_64-pc-linux-gnu"

%struct._value_string_ext = type { ptr, i32, i32, ptr, ptr }
%struct.expert_field = type { i32, i32 }
%struct.awdl_tagged_field_data = type { ptr, ptr }

@hf_awdl_tag = internal global i32 0, align 4
@hf_awdl_tag_number = internal global i32 0, align 4
@tag_num_vals_ext = internal global %struct._value_string_ext { ptr @_try_val_to_str_ext_init, i32 0, i32 25, ptr @tag_num_vals, ptr @.str.447 }, align 8
@hf_awdl_tag_length = internal global i32 0, align 4
@hf_awdl_tag_data = internal global i32 0, align 4
@hf_awdl_tag_padding = internal global i32 0, align 4
@ett_awdl_tag = internal global i32 0, align 4
@ei_awdl_tag_length = internal global %struct.expert_field zeroinitializer, align 4
@ei_awdl_tag_data = internal global %struct.expert_field zeroinitializer, align 4
@tagged_field_table = internal global ptr null, align 8
@.str.551 = private unnamed_addr constant [5 x i8] c": %s\00", align 1
@.str.552 = private unnamed_addr constant [13 x i8] c"Unknown (%d)\00", align 1
@.str.553 = private unnamed_addr constant [44 x i8] c"Tag Length is longer than remaining payload\00", align 1
@.str.554 = private unnamed_addr constant [49 x i8] c"Dissector for AWDL tag (%s) code not implemented\00", align 1
@.str.555 = private unnamed_addr constant [5 x i8] c"(%d)\00", align 1
@.str.556 = private unnamed_addr constant [12 x i8] c": Undecoded\00", align 1

; Function Attrs: null_pointer_is_valid sspstrong uwtable
define internal i32 @awdl_add_tagged_field(ptr noundef %0, ptr noundef %1, ptr noundef %2, i32 noundef %3, i32 noundef %4) #0 {
  %6 = alloca ptr, align 8
  %7 = alloca ptr, align 8
  %8 = alloca ptr, align 8
  %9 = alloca i32, align 4
  %10 = alloca i32, align 4
  %11 = alloca ptr, align 8
  %12 = alloca i32, align 4
  %13 = alloca i32, align 4
  %14 = alloca ptr, align 8
  %15 = alloca ptr, align 8
  %16 = alloca ptr, align 8
  %17 = alloca ptr, align 8
  %18 = alloca %struct.awdl_tagged_field_data, align 8
  %19 = alloca i32, align 4
  store ptr %0, ptr %6, align 8
  store ptr %1, ptr %7, align 8
  store ptr %2, ptr %8, align 8
  store i32 %3, ptr %9, align 4
  store i32 %4, ptr %10, align 4
  call void @llvm.lifetime.start.p0(i64 8, ptr %11) #6
  call void @llvm.lifetime.start.p0(i64 4, ptr %12) #6
  call void @llvm.lifetime.start.p0(i64 4, ptr %13) #6
  call void @llvm.lifetime.start.p0(i64 8, ptr %14) #6
  %20 = load ptr, ptr %7, align 8
  store ptr %20, ptr %14, align 8
  call void @llvm.lifetime.start.p0(i64 8, ptr %15) #6
  store ptr null, ptr %15, align 8
  call void @llvm.lifetime.start.p0(i64 8, ptr %16) #6
  call void @llvm.lifetime.start.p0(i64 8, ptr %17) #6
  call void @llvm.lifetime.start.p0(i64 16, ptr %18) #6
  call void @llvm.lifetime.start.p0(i64 4, ptr %19) #6
  %21 = load ptr, ptr %8, align 8
  %22 = load i32, ptr %9, align 4
  %23 = call zeroext i8 @tvb_get_uint8(ptr noundef %21, i32 noundef %22)
  %24 = zext i8 %23 to i32
  store i32 %24, ptr %12, align 4
  %25 = load i32, ptr %10, align 4
  %26 = icmp eq i32 %25, 2
  br i1 %26, label %27, label %33

27:                                               ; preds = %5
  %28 = load ptr, ptr %8, align 8
  %29 = load i32, ptr %9, align 4
  %30 = add i32 %29, 1
  %31 = call zeroext i8 @tvb_get_uint8(ptr noundef %28, i32 noundef %30)
  %32 = zext i8 %31 to i32
  store i32 %32, ptr %13, align 4
  br label %39

33:                                               ; preds = %5
  %34 = load ptr, ptr %8, align 8
  %35 = load i32, ptr %9, align 4
  %36 = add i32 %35, 1
  %37 = call zeroext i16 @tvb_get_uint16(ptr noundef %34, i32 noundef %36, i32 noundef -2147483648)
  %38 = zext i16 %37 to i32
  store i32 %38, ptr %13, align 4
  br label %39

39:                                               ; preds = %33, %27
  %40 = load ptr, ptr %7, align 8
  %41 = icmp ne ptr %40, null
  br i1 %41, label %42, label %57

42:                                               ; preds = %39
  %43 = load ptr, ptr %14, align 8
  %44 = load i32, ptr @hf_awdl_tag, align 4
  %45 = load ptr, ptr %8, align 8
  %46 = load i32, ptr %9, align 4
  %47 = load i32, ptr %13, align 4
  %48 = load i32, ptr %10, align 4
  %49 = add i32 %47, %48
  %50 = call ptr @proto_tree_add_item(ptr noundef %43, i32 noundef %44, ptr noundef %45, i32 noundef %46, i32 noundef %49, i32 noundef 0)
  store ptr %50, ptr %15, align 8
  %51 = load ptr, ptr %15, align 8
  %52 = load i32, ptr %12, align 4
  %53 = call ptr @val_to_str_ext(i32 noundef %52, ptr noundef @tag_num_vals_ext, ptr noundef @.str.552)
  call void (ptr, ptr, ...) @proto_item_append_text(ptr noundef %51, ptr noundef @.str.551, ptr noundef %53)
  %54 = load ptr, ptr %15, align 8
  %55 = load i32, ptr @ett_awdl_tag, align 4
  %56 = call ptr @proto_item_add_subtree(ptr noundef %54, i32 noundef %55)
  store ptr %56, ptr %7, align 8
  br label %57

57:                                               ; preds = %42, %39
  %58 = load ptr, ptr %7, align 8
  %59 = load i32, ptr @hf_awdl_tag_number, align 4
  %60 = load ptr, ptr %8, align 8
  %61 = load i32, ptr %9, align 4
  %62 = load i32, ptr %12, align 4
  %63 = call ptr @proto_tree_add_uint(ptr noundef %58, i32 noundef %59, ptr noundef %60, i32 noundef %61, i32 noundef 1, i32 noundef %62)
  store ptr %63, ptr %17, align 8
  %64 = load ptr, ptr %7, align 8
  %65 = load i32, ptr @hf_awdl_tag_length, align 4
  %66 = load ptr, ptr %8, align 8
  %67 = load i32, ptr %9, align 4
  %68 = add i32 %67, 1
  %69 = load i32, ptr %10, align 4
  %70 = sub i32 %69, 1
  %71 = load i32, ptr %13, align 4
  %72 = call ptr @proto_tree_add_uint(ptr noundef %64, i32 noundef %65, ptr noundef %66, i32 noundef %68, i32 noundef %70, i32 noundef %71)
  store ptr %72, ptr %16, align 8
  %73 = load i32, ptr %10, align 4
  %74 = load i32, ptr %9, align 4
  %75 = add i32 %74, %73
  store i32 %75, ptr %9, align 4
  %76 = load i32, ptr %13, align 4
  %77 = load ptr, ptr %8, align 8
  %78 = load i32, ptr %9, align 4
  %79 = call i32 @tvb_reported_length_remaining(ptr noundef %77, i32 noundef %78)
  %80 = icmp ugt i32 %76, %79
  br i1 %80, label %81, label %85

81:                                               ; preds = %57
  %82 = load ptr, ptr %6, align 8
  %83 = load ptr, ptr %16, align 8
  %84 = call ptr (ptr, ptr, ptr, ptr, ...) @expert_add_info_format(ptr noundef %82, ptr noundef %83, ptr noundef @ei_awdl_tag_length, ptr noundef @.str.553)
  br label %85

85:                                               ; preds = %81, %57
  %86 = load ptr, ptr %8, align 8
  %87 = load i32, ptr %9, align 4
  %88 = load i32, ptr %13, align 4
  %89 = call ptr @tvb_new_subset_length(ptr noundef %86, i32 noundef %87, i32 noundef %88)
  store ptr %89, ptr %11, align 8
  %90 = load ptr, ptr %15, align 8
  %91 = getelementptr inbounds nuw %struct.awdl_tagged_field_data, ptr %18, i32 0, i32 0
  store ptr %90, ptr %91, align 8
  %92 = load ptr, ptr %16, align 8
  %93 = getelementptr inbounds nuw %struct.awdl_tagged_field_data, ptr %18, i32 0, i32 1
  store ptr %92, ptr %93, align 8
  %94 = load ptr, ptr @tagged_field_table, align 8
  %95 = load i32, ptr %12, align 4
  %96 = load ptr, ptr %11, align 8
  %97 = load ptr, ptr %6, align 8
  %98 = load ptr, ptr %7, align 8
  %99 = call i32 @dissector_try_uint_with_data(ptr noundef %94, i32 noundef %95, ptr noundef %96, ptr noundef %97, ptr noundef %98, i1 noundef zeroext false, ptr noundef %18)
  store i32 %99, ptr %19, align 4
  %100 = icmp ne i32 %99, 0
  br i1 %100, label %113, label %101

101:                                              ; preds = %85
  %102 = load ptr, ptr %7, align 8
  %103 = load i32, ptr @hf_awdl_tag_data, align 4
  %104 = load ptr, ptr %11, align 8
  %105 = load i32, ptr %13, align 4
  %106 = call ptr @proto_tree_add_item(ptr noundef %102, i32 noundef %103, ptr noundef %104, i32 noundef 0, i32 noundef %105, i32 noundef 0)
  %107 = load ptr, ptr %6, align 8
  %108 = load ptr, ptr %17, align 8
  %109 = load i32, ptr %12, align 4
  %110 = call ptr @val_to_str_ext(i32 noundef %109, ptr noundef @tag_num_vals_ext, ptr noundef @.str.555)
  %111 = call ptr (ptr, ptr, ptr, ptr, ...) @expert_add_info_format(ptr noundef %107, ptr noundef %108, ptr noundef @ei_awdl_tag_data, ptr noundef @.str.554, ptr noundef %110)
  %112 = load ptr, ptr %15, align 8
  call void (ptr, ptr, ...) @proto_item_append_text(ptr noundef %112, ptr noundef @.str.556)
  br label %130

113:                                              ; preds = %85
  %114 = load i32, ptr %19, align 4
  %115 = icmp sgt i32 %114, 0
  br i1 %115, label %116, label %129

116:                                              ; preds = %113
  %117 = load i32, ptr %19, align 4
  %118 = load i32, ptr %13, align 4
  %119 = icmp ult i32 %117, %118
  br i1 %119, label %120, label %129

120:                                              ; preds = %116
  %121 = load ptr, ptr %7, align 8
  %122 = load i32, ptr @hf_awdl_tag_padding, align 4
  %123 = load ptr, ptr %11, align 8
  %124 = load i32, ptr %19, align 4
  %125 = load i32, ptr %13, align 4
  %126 = load i32, ptr %19, align 4
  %127 = sub i32 %125, %126
  %128 = call ptr @proto_tree_add_item(ptr noundef %121, i32 noundef %122, ptr noundef %123, i32 noundef %124, i32 noundef %127, i32 noundef 0)
  br label %129

129:                                              ; preds = %120, %116, %113
  br label %130

130:                                              ; preds = %129, %101
  %131 = load i32, ptr %13, align 4
  %132 = load i32, ptr %10, align 4
  %133 = add i32 %131, %132
  call void @llvm.lifetime.end.p0(i64 4, ptr %19) #6
  call void @llvm.lifetime.end.p0(i64 16, ptr %18) #6
  call void @llvm.lifetime.end.p0(i64 8, ptr %17) #6
  call void @llvm.lifetime.end.p0(i64 8, ptr %16) #6
  call void @llvm.lifetime.end.p0(i64 8, ptr %15) #6
  call void @llvm.lifetime.end.p0(i64 8, ptr %14) #6
  call void @llvm.lifetime.end.p0(i64 4, ptr %13) #6
  call void @llvm.lifetime.end.p0(i64 4, ptr %12) #6
  call void @llvm.lifetime.end.p0(i64 8, ptr %11) #6
  ret i32 %133
}