; Function Attrs: null_pointer_is_valid sspstrong uwtable
define internal fastcc range(i32 2, 65539) i32 @awdl_add_tagged_field(ptr noundef %0, ptr noundef %1, ptr noundef %2, i32 noundef %3, i32 noundef range(i32 2, 4) %4) unnamed_addr #0 {
  %6 = alloca %struct.awdl_tagged_field_data, align 8
  call void @llvm.lifetime.start.p0(i64 16, ptr nonnull %6) #5
  %7 = tail call zeroext i8 @tvb_get_uint8(ptr noundef %2, i32 noundef %3)
  %8 = zext i8 %7 to i32
  %9 = icmp eq i32 %4, 2
  %10 = add i32 %3, 1
  br i1 %9, label %11, label %14

11:                                               ; preds = %5
  %12 = tail call zeroext i8 @tvb_get_uint8(ptr noundef %2, i32 noundef %10)
  %13 = zext i8 %12 to i32
  br label %17

14:                                               ; preds = %5
  %15 = tail call zeroext i16 @tvb_get_uint16(ptr noundef %2, i32 noundef %10, i32 noundef -2147483648)
  %16 = zext i16 %15 to i32
  br label %17

17:                                               ; preds = %14, %11
  %.058 = phi i32 [ %13, %11 ], [ %16, %14 ]
  %.not = icmp eq ptr %1, null
  br i1 %.not, label %25, label %18

18:                                               ; preds = %17
  %19 = load i32, ptr @hf_awdl_tag, align 4
  %20 = add nuw nsw i32 %.058, %4
  %21 = tail call ptr @proto_tree_add_item(ptr noundef nonnull %1, i32 noundef %19, ptr noundef %2, i32 noundef %3, i32 noundef %20, i32 noundef 0)
  %22 = tail call ptr @val_to_str_ext(i32 noundef %8, ptr noundef nonnull @tag_num_vals_ext, ptr noundef nonnull @.str.552)
  tail call void (ptr, ptr, ...) @proto_item_append_text(ptr noundef %21, ptr noundef nonnull @.str.551, ptr noundef %22)
  %23 = load i32, ptr @ett_awdl_tag, align 4
  %24 = tail call ptr @proto_item_add_subtree(ptr noundef %21, i32 noundef %23)
  br label %25

25:                                               ; preds = %18, %17
  %.059 = phi ptr [ %21, %18 ], [ null, %17 ]
  %.0 = phi ptr [ %24, %18 ], [ null, %17 ]
  %26 = load i32, ptr @hf_awdl_tag_number, align 4
  %27 = tail call ptr @proto_tree_add_uint(ptr noundef %.0, i32 noundef %26, ptr noundef %2, i32 noundef %3, i32 noundef 1, i32 noundef %8)
  %28 = load i32, ptr @hf_awdl_tag_length, align 4
  %29 = add i32 %3, 1
  %30 = add nsw i32 %4, -1
  %31 = tail call ptr @proto_tree_add_uint(ptr noundef %.0, i32 noundef %28, ptr noundef %2, i32 noundef %29, i32 noundef %30, i32 noundef %.058)
  %32 = add i32 %4, %3
  %33 = tail call i32 @tvb_reported_length_remaining(ptr noundef %2, i32 noundef %32)
  %34 = icmp ugt i32 %.058, %33
  br i1 %34, label %35, label %37

35:                                               ; preds = %25
  %36 = tail call ptr (ptr, ptr, ptr, ptr, ...) @expert_add_info_format(ptr noundef %0, ptr noundef %31, ptr noundef nonnull @ei_awdl_tag_length, ptr noundef nonnull @.str.553)
  br label %37

37:                                               ; preds = %35, %25
  %38 = tail call ptr @tvb_new_subset_length(ptr noundef %2, i32 noundef %32, i32 noundef %.058)
  store ptr %.059, ptr %6, align 8
  %39 = getelementptr inbounds nuw i8, ptr %6, i64 8
  store ptr %31, ptr %39, align 8
  %40 = load ptr, ptr @tagged_field_table, align 8
  %41 = call i32 @dissector_try_uint_with_data(ptr noundef %40, i32 noundef %8, ptr noundef %38, ptr noundef %0, ptr noundef %.0, i1 noundef zeroext false, ptr noundef nonnull %6)
  %.not62 = icmp eq i32 %41, 0
  br i1 %.not62, label %42, label %47

42:                                               ; preds = %37
  %43 = load i32, ptr @hf_awdl_tag_data, align 4
  %44 = call ptr @proto_tree_add_item(ptr noundef %.0, i32 noundef %43, ptr noundef %38, i32 noundef 0, i32 noundef %.058, i32 noundef 0)
  %45 = call ptr @val_to_str_ext(i32 noundef %8, ptr noundef nonnull @tag_num_vals_ext, ptr noundef nonnull @.str.555)
  %46 = call ptr (ptr, ptr, ptr, ptr, ...) @expert_add_info_format(ptr noundef %0, ptr noundef %27, ptr noundef nonnull @ei_awdl_tag_data, ptr noundef nonnull @.str.554, ptr noundef %45)
  call void (ptr, ptr, ...) @proto_item_append_text(ptr noundef %.059, ptr noundef nonnull @.str.556)
  br label %54

47:                                               ; preds = %37
  %48 = icmp sgt i32 %41, 0
  %49 = icmp ult i32 %41, %.058
  %or.cond = select i1 %48, i1 %49, i1 false
  br i1 %or.cond, label %50, label %54

50:                                               ; preds = %47
  %51 = load i32, ptr @hf_awdl_tag_padding, align 4
  %52 = sub nuw nsw i32 %.058, %41
  %53 = call ptr @proto_tree_add_item(ptr noundef %.0, i32 noundef %51, ptr noundef %38, i32 noundef %41, i32 noundef %52, i32 noundef 0)
  br label %54

54:                                               ; preds = %47, %50, %42
  %55 = add nuw nsw i32 %.058, %4
  call void @llvm.lifetime.end.p0(i64 16, ptr nonnull %6) #5
  ret i32 %55
}